target datalayout = "e-m:e-p270:32:32-p271:32:32-p272:64:64-i64:64-i128:128-f80:128-n8:16:32:64-S128"
target triple = "x86_64-pc-linux-gnu"

%"class.std::_Function_base" = type { %"union.std::_Any_data", ptr }
%"union.std::_Any_data" = type { %"union.std::_Nocopy_types" }
%"union.std::_Nocopy_types" = type { { i64, i64 } }
%"class.gmx::EnergyData" = type { %"class.std::unique_ptr", %"class.std::unique_ptr.41", %class.ekinstate_t, i8, [3 x [3 x float]], [3 x [3 x float]], [3 x [3 x float]], [3 x [3 x float]], [3 x float], i64, i64, i64, i64, i8, i8, i32, ptr, ptr, %"class.std::vector.52", %"class.std::function.57", ptr, ptr, ptr, ptr, ptr, ptr, ptr, ptr, ptr, ptr, ptr, i8, ptr }
%"class.std::unique_ptr" = type { %"struct.std::__uniq_ptr_data" }
%"struct.std::__uniq_ptr_data" = type { %"class.std::__uniq_ptr_impl" }
%"class.std::__uniq_ptr_impl" = type { %"class.std::tuple" }
%"class.std::tuple" = type { %"struct.std::_Tuple_impl" }
%"struct.std::_Tuple_impl" = type { %"struct.std::_Head_base.40" }
%"struct.std::_Head_base.40" = type { ptr }
%"class.std::unique_ptr.41" = type { %"struct.std::__uniq_ptr_data.42" }
%"struct.std::__uniq_ptr_data.42" = type { %"class.std::__uniq_ptr_impl.43" }
%"class.std::__uniq_ptr_impl.43" = type { %"class.std::tuple.44" }
%"class.std::tuple.44" = type { %"struct.std::_Tuple_impl.45" }
%"struct.std::_Tuple_impl.45" = type { %"struct.std::_Head_base.48" }
%"struct.std::_Head_base.48" = type { ptr }
%class.ekinstate_t = type <{ i8, [3 x i8], i32, ptr, ptr, ptr, [3 x [3 x float]], [4 x i8], %"class.std::vector", %"class.std::vector", %"class.std::vector", float, float, i8, [7 x i8] }>
%"class.std::vector" = type { %"struct.std::_Vector_base" }
%"struct.std::_Vector_base" = type { %"struct.std::_Vector_base<double, std::allocator<double>>::_Vector_impl" }
%"struct.std::_Vector_base<double, std::allocator<double>>::_Vector_impl" = type { %"struct.std::_Vector_base<double, std::allocator<double>>::_Vector_impl_data" }
%"struct.std::_Vector_base<double, std::allocator<double>>::_Vector_impl_data" = type { ptr, ptr, ptr }
%"class.std::vector.52" = type { %"struct.std::_Vector_base.53" }
%"struct.std::_Vector_base.53" = type { %"struct.std::_Vector_base<std::function<float (long, double)>, std::allocator<std::function<float (long, double)>>>::_Vector_impl" }
%"struct.std::_Vector_base<std::function<float (long, double)>, std::allocator<std::function<float (long, double)>>>::_Vector_impl" = type { %"struct.std::_Vector_base<std::function<float (long, double)>, std::allocator<std::function<float (long, double)>>>::_Vector_impl_data" }
%"struct.std::_Vector_base<std::function<float (long, double)>, std::allocator<std::function<float (long, double)>>>::_Vector_impl_data" = type { ptr, ptr, ptr }
%"class.std::function.57" = type { %"class.std::_Function_base", ptr }

; Function Attrs: inlinehint mustprogress nounwind uwtable
define internal void @_ZL9clear_matPA3_f(ptr noundef %0) #2 {
  %2 = alloca ptr, align 8
  %3 = alloca float, align 4
  store ptr %0, ptr %2, align 8, !tbaa !178
  call void @llvm.lifetime.start.p0(i64 4, ptr %3) #22
  store float 0.000000e+00, ptr %3, align 4, !tbaa !179
  %4 = load ptr, ptr %2, align 8, !tbaa !178
  %5 = getelementptr inbounds [3 x float], ptr %4, i64 0
  %6 = getelementptr inbounds [3 x float], ptr %5, i64 0, i64 2
  store float 0.000000e+00, ptr %6, align 4, !tbaa !179
  %7 = load ptr, ptr %2, align 8, !tbaa !178
  %8 = getelementptr inbounds [3 x float], ptr %7, i64 0
  %9 = getelementptr inbounds [3 x float], ptr %8, i64 0, i64 1
  store float 0.000000e+00, ptr %9, align 4, !tbaa !179
  %10 = load ptr, ptr %2, align 8, !tbaa !178
  %11 = getelementptr inbounds [3 x float], ptr %10, i64 0
  %12 = getelementptr inbounds [3 x float], ptr %11, i64 0, i64 0
  store float 0.000000e+00, ptr %12, align 4, !tbaa !179
  %13 = load ptr, ptr %2, align 8, !tbaa !178
  %14 = getelementptr inbounds [3 x float], ptr %13, i64 1
  %15 = getelementptr inbounds [3 x float], ptr %14, i64 0, i64 2
  store float 0.000000e+00, ptr %15, align 4, !tbaa !179
  %16 = load ptr, ptr %2, align 8, !tbaa !178
  %17 = getelementptr inbounds [3 x float], ptr %16, i64 1
  %18 = getelementptr inbounds [3 x float], ptr %17, i64 0, i64 1
  store float 0.000000e+00, ptr %18, align 4, !tbaa !179
  %19 = load ptr, ptr %2, align 8, !tbaa !178
  %20 = getelementptr inbounds [3 x float], ptr %19, i64 1
  %21 = getelementptr inbounds [3 x float], ptr %20, i64 0, i64 0
  store float 0.000000e+00, ptr %21, align 4, !tbaa !179
  %22 = load ptr, ptr %2, align 8, !tbaa !178
  %23 = getelementptr inbounds [3 x float], ptr %22, i64 2
  %24 = getelementptr inbounds [3 x float], ptr %23, i64 0, i64 2
  store float 0.000000e+00, ptr %24, align 4, !tbaa !179
  %25 = load ptr, ptr %2, align 8, !tbaa !178
  %26 = getelementptr inbounds [3 x float], ptr %25, i64 2
  %27 = getelementptr inbounds [3 x float], ptr %26, i64 0, i64 1
  store float 0.000000e+00, ptr %27, align 4, !tbaa !179
  %28 = load ptr, ptr %2, align 8, !tbaa !178
  %29 = getelementptr inbounds [3 x float], ptr %28, i64 2
  %30 = getelementptr inbounds [3 x float], ptr %29, i64 0, i64 0
  store float 0.000000e+00, ptr %30, align 4, !tbaa !179
  call void @llvm.lifetime.end.p0(i64 4, ptr %3) #22
  ret void
}

; Function Attrs: mustprogress nounwind uwtable
define noundef ptr @_ZN3gmx10EnergyData8pressureEl(ptr noundef nonnull align 8 dereferenceable(552) %0, i64 noundef %1) #1 align 2 {
  %3 = alloca ptr, align 8
  %4 = alloca i64, align 8
  store ptr %0, ptr %3, align 8, !tbaa !129
  store i64 %1, ptr %4, align 8, !tbaa !9
  %5 = load ptr, ptr %3, align 8
  %6 = load i64, ptr %4, align 8, !tbaa !9
  %7 = getelementptr inbounds nuw %"class.gmx::EnergyData", ptr %5, i32 0, i32 12
  %8 = load i64, ptr %7, align 8, !tbaa !148
  %9 = icmp sgt i64 %6, %8
  br i1 %9, label %10, label %15

10:                                               ; preds = %2
  %11 = load i64, ptr %4, align 8, !tbaa !9
  %12 = getelementptr inbounds nuw %"class.gmx::EnergyData", ptr %5, i32 0, i32 12
  store i64 %11, ptr %12, align 8, !tbaa !148
  %13 = getelementptr inbounds nuw %"class.gmx::EnergyData", ptr %5, i32 0, i32 7
  %14 = getelementptr inbounds [3 x [3 x float]], ptr %13, i64 0, i64 0
  call void @_ZL9clear_matPA3_f(ptr noundef %14)
  br label %15

15:                                               ; preds = %10, %2
  %16 = getelementptr inbounds nuw %"class.gmx::EnergyData", ptr %5, i32 0, i32 7
  %17 = getelementptr inbounds [3 x [3 x float]], ptr %16, i64 0, i64 0
  ret ptr %17
}