; Function Attrs: mustprogress nofree norecurse nosync nounwind willreturn memory(argmem: readwrite) uwtable
define noundef nonnull ptr @_ZN3gmx10EnergyData8pressureEl(ptr noundef nonnull align 8 dereferenceable(552) %0, i64 noundef %1) local_unnamed_addr #4 align 2 {
  %3 = getelementptr inbounds nuw i8, ptr %0, i64 360
  %4 = load i64, ptr %3, align 8, !tbaa !400
  %5 = icmp sgt i64 %1, %4
  br i1 %5, label %6, label %8

6:                                                ; preds = %2
  store i64 %1, ptr %3, align 8, !tbaa !400
  %7 = getelementptr inbounds nuw i8, ptr %0, i64 288
  tail call void @llvm.memset.p0.i64(ptr noundef nonnull align 8 dereferenceable(36) %7, i8 0, i64 36, i1 false)
  br label %8

8:                                                ; preds = %6, %2
  %9 = getelementptr inbounds nuw i8, ptr %0, i64 288
  ret ptr %9
}